target datalayout = "e-m:e-p270:32:32-p271:32:32-p272:64:64-i64:64-i128:128-f80:128-n8:16:32:64-S128"
target triple = "x86_64-pc-linux-gnu"

%struct.Vec_Int_t_ = type { i32, i32, ptr }
%struct.Gia_Man_t_ = type { ptr, ptr, i32, i32, i32, i32, ptr, ptr, i32, i32, i32, ptr, ptr, %struct.Vec_Int_t_, %struct.Vec_Int_t_, i32, i32, i32, %struct.Vec_Int_t_, ptr, ptr, ptr, i32, i32, i32, i32, ptr, ptr, ptr, ptr, ptr, i32, i32, ptr, i32, ptr, ptr, ptr, ptr, ptr, ptr, ptr, ptr, ptr, ptr, ptr, ptr, ptr, ptr, ptr, ptr, ptr, ptr, %struct.Vec_Int_t_, %struct.Vec_Int_t_, ptr, ptr, ptr, ptr, ptr, ptr, ptr, ptr, ptr, ptr, ptr, ptr, ptr, ptr, ptr, ptr, ptr, ptr, ptr, ptr, ptr, i32, float, float, ptr, ptr, i32, ptr, ptr, ptr, ptr, ptr, ptr, ptr, ptr, ptr, ptr, ptr, ptr, ptr, ptr, ptr, i64, i64, ptr, ptr, i32, i32, i32, i32, i32, i32, i32, i32, i32, i32, i32, i32, ptr, ptr, ptr, ptr, ptr, ptr, ptr, ptr, i32, i32, i32, ptr, i32, i32, ptr, ptr, ptr, ptr, ptr, ptr, i32, i32, ptr, %struct.Vec_Int_t_, %struct.Vec_Int_t_, %struct.Vec_Int_t_, ptr, ptr, ptr, i32, i32, i32, i32, ptr, ptr, ptr, ptr, ptr }
%struct.Vec_Wrd_t_ = type { i32, i32, ptr }

; Function Attrs: inlinehint nounwind uwtable
define internal ptr @Vec_WrdEntryP(ptr noundef %0, i32 noundef %1) #1 {
  %3 = alloca ptr, align 8
  %4 = alloca i32, align 4
  store ptr %0, ptr %3, align 8, !tbaa !122
  store i32 %1, ptr %4, align 4, !tbaa !8
  %5 = load ptr, ptr %3, align 8, !tbaa !122
  %6 = getelementptr inbounds nuw %struct.Vec_Wrd_t_, ptr %5, i32 0, i32 2
  %7 = load ptr, ptr %6, align 8, !tbaa !127
  %8 = load i32, ptr %4, align 4, !tbaa !8
  %9 = sext i32 %8 to i64
  %10 = getelementptr inbounds i64, ptr %7, i64 %9
  ret ptr %10
}

; Function Attrs: inlinehint nounwind uwtable
define internal i32 @Abc_LitIsCompl(i32 noundef %0) #1 {
  %2 = alloca i32, align 4
  store i32 %0, ptr %2, align 4, !tbaa !8
  %3 = load i32, ptr %2, align 4, !tbaa !8
  %4 = and i32 %3, 1
  ret i32 %4
}

; Function Attrs: inlinehint nounwind uwtable
define internal ptr @Gia_ManBuiltInData(ptr noundef %0, i32 noundef %1) #1 {
  %3 = alloca ptr, align 8
  %4 = alloca i32, align 4
  store ptr %0, ptr %3, align 8, !tbaa !19
  store i32 %1, ptr %4, align 4, !tbaa !8
  %5 = load ptr, ptr %3, align 8, !tbaa !19
  %6 = getelementptr inbounds nuw %struct.Gia_Man_t_, ptr %5, i32 0, i32 113
  %7 = load ptr, ptr %6, align 8, !tbaa !119
  %8 = load ptr, ptr %3, align 8, !tbaa !19
  %9 = getelementptr inbounds nuw %struct.Gia_Man_t_, ptr %8, i32 0, i32 109
  %10 = load i32, ptr %9, align 8, !tbaa !116
  %11 = load i32, ptr %4, align 4, !tbaa !8
  %12 = mul nsw i32 %10, %11
  %13 = call ptr @Vec_WrdEntryP(ptr noundef %7, i32 noundef %12)
  ret ptr %13
}

; Function Attrs: nounwind uwtable
define i32 @Gia_ManBuiltInSimCheckOver(ptr noundef %0, i32 noundef %1, i32 noundef %2) #0 {
  %4 = alloca i32, align 4
  %5 = alloca ptr, align 8
  %6 = alloca i32, align 4
  %7 = alloca i32, align 4
  %8 = alloca ptr, align 8
  %9 = alloca ptr, align 8
  %10 = alloca i32, align 4
  %11 = alloca i32, align 4
  store ptr %0, ptr %5, align 8, !tbaa !19
  store i32 %1, ptr %6, align 4, !tbaa !8
  store i32 %2, ptr %7, align 4, !tbaa !8
  call void @llvm.lifetime.start.p0(i64 8, ptr %8) #11
  %12 = load ptr, ptr %5, align 8, !tbaa !19
  %13 = load i32, ptr %6, align 4, !tbaa !8
  %14 = call i32 @Abc_Lit2Var(i32 noundef %13)
  %15 = call ptr @Gia_ManBuiltInData(ptr noundef %12, i32 noundef %14)
  store ptr %15, ptr %8, align 8, !tbaa !129
  call void @llvm.lifetime.start.p0(i64 8, ptr %9) #11
  %16 = load ptr, ptr %5, align 8, !tbaa !19
  %17 = load i32, ptr %7, align 4, !tbaa !8
  %18 = call i32 @Abc_Lit2Var(i32 noundef %17)
  %19 = call ptr @Gia_ManBuiltInData(ptr noundef %16, i32 noundef %18)
  store ptr %19, ptr %9, align 8, !tbaa !129
  call void @llvm.lifetime.start.p0(i64 4, ptr %10) #11
  %20 = load i32, ptr %6, align 4, !tbaa !8
  %21 = call i32 @Abc_LitIsCompl(i32 noundef %20)
  %22 = icmp ne i32 %21, 0
  br i1 %22, label %23, label %83

23:                                               ; preds = %3
  %24 = load i32, ptr %7, align 4, !tbaa !8
  %25 = call i32 @Abc_LitIsCompl(i32 noundef %24)
  %26 = icmp ne i32 %25, 0
  br i1 %26, label %27, label %55

27:                                               ; preds = %23
  store i32 0, ptr %10, align 4, !tbaa !8
  br label %28

28:                                               ; preds = %51, %27
  %29 = load i32, ptr %10, align 4, !tbaa !8
  %30 = load ptr, ptr %5, align 8, !tbaa !19
  %31 = getelementptr inbounds nuw %struct.Gia_Man_t_, ptr %30, i32 0, i32 109
  %32 = load i32, ptr %31, align 8, !tbaa !116
  %33 = icmp slt i32 %29, %32
  br i1 %33, label %34, label %54

34:                                               ; preds = %28
  %35 = load ptr, ptr %8, align 8, !tbaa !129
  %36 = load i32, ptr %10, align 4, !tbaa !8
  %37 = sext i32 %36 to i64
  %38 = getelementptr inbounds i64, ptr %35, i64 %37
  %39 = load i64, ptr %38, align 8, !tbaa !29
  %40 = xor i64 %39, -1
  %41 = load ptr, ptr %9, align 8, !tbaa !129
  %42 = load i32, ptr %10, align 4, !tbaa !8
  %43 = sext i32 %42 to i64
  %44 = getelementptr inbounds i64, ptr %41, i64 %43
  %45 = load i64, ptr %44, align 8, !tbaa !29
  %46 = xor i64 %45, -1
  %47 = and i64 %40, %46
  %48 = icmp ne i64 %47, 0
  br i1 %48, label %49, label %50

49:                                               ; preds = %34
  store i32 1, ptr %4, align 4
  store i32 1, ptr %11, align 4
  br label %142

50:                                               ; preds = %34
  br label %51

51:                                               ; preds = %50
  %52 = load i32, ptr %10, align 4, !tbaa !8
  %53 = add nsw i32 %52, 1
  store i32 %53, ptr %10, align 4, !tbaa !8
  br label %28, !llvm.loop !138

54:                                               ; preds = %28
  br label %82

55:                                               ; preds = %23
  store i32 0, ptr %10, align 4, !tbaa !8
  br label %56

56:                                               ; preds = %78, %55
  %57 = load i32, ptr %10, align 4, !tbaa !8
  %58 = load ptr, ptr %5, align 8, !tbaa !19
  %59 = getelementptr inbounds nuw %struct.Gia_Man_t_, ptr %58, i32 0, i32 109
  %60 = load i32, ptr %59, align 8, !tbaa !116
  %61 = icmp slt i32 %57, %60
  br i1 %61, label %62, label %81

62:                                               ; preds = %56
  %63 = load ptr, ptr %8, align 8, !tbaa !129
  %64 = load i32, ptr %10, align 4, !tbaa !8
  %65 = sext i32 %64 to i64
  %66 = getelementptr inbounds i64, ptr %63, i64 %65
  %67 = load i64, ptr %66, align 8, !tbaa !29
  %68 = xor i64 %67, -1
  %69 = load ptr, ptr %9, align 8, !tbaa !129
  %70 = load i32, ptr %10, align 4, !tbaa !8
  %71 = sext i32 %70 to i64
  %72 = getelementptr inbounds i64, ptr %69, i64 %71
  %73 = load i64, ptr %72, align 8, !tbaa !29
  %74 = and i64 %68, %73
  %75 = icmp ne i64 %74, 0
  br i1 %75, label %76, label %77

76:                                               ; preds = %62
  store i32 1, ptr %4, align 4
  store i32 1, ptr %11, align 4
  br label %142

77:                                               ; preds = %62
  br label %78

78:                                               ; preds = %77
  %79 = load i32, ptr %10, align 4, !tbaa !8
  %80 = add nsw i32 %79, 1
  store i32 %80, ptr %10, align 4, !tbaa !8
  br label %56, !llvm.loop !139

81:                                               ; preds = %56
  br label %82

82:                                               ; preds = %81, %54
  br label %141

83:                                               ; preds = %3
  %84 = load i32, ptr %7, align 4, !tbaa !8
  %85 = call i32 @Abc_LitIsCompl(i32 noundef %84)
  %86 = icmp ne i32 %85, 0
  br i1 %86, label %87, label %114

87:                                               ; preds = %83
  store i32 0, ptr %10, align 4, !tbaa !8
  br label %88

88:                                               ; preds = %110, %87
  %89 = load i32, ptr %10, align 4, !tbaa !8
  %90 = load ptr, ptr %5, align 8, !tbaa !19
  %91 = getelementptr inbounds nuw %struct.Gia_Man_t_, ptr %90, i32 0, i32 109
  %92 = load i32, ptr %91, align 8, !tbaa !116
  %93 = icmp slt i32 %89, %92
  br i1 %93, label %94, label %113

94:                                               ; preds = %88
  %95 = load ptr, ptr %8, align 8, !tbaa !129
  %96 = load i32, ptr %10, align 4, !tbaa !8
  %97 = sext i32 %96 to i64
  %98 = getelementptr inbounds i64, ptr %95, i64 %97
  %99 = load i64, ptr %98, align 8, !tbaa !29
  %100 = load ptr, ptr %9, align 8, !tbaa !129
  %101 = load i32, ptr %10, align 4, !tbaa !8
  %102 = sext i32 %101 to i64
  %103 = getelementptr inbounds i64, ptr %100, i64 %102
  %104 = load i64, ptr %103, align 8, !tbaa !29
  %105 = xor i64 %104, -1
  %106 = and i64 %99, %105
  %107 = icmp ne i64 %106, 0
  br i1 %107, label %108, label %109

108:                                              ; preds = %94
  store i32 1, ptr %4, align 4
  store i32 1, ptr %11, align 4
  br label %142

109:                                              ; preds = %94
  br label %110

110:                                              ; preds = %109
  %111 = load i32, ptr %10, align 4, !tbaa !8
  %112 = add nsw i32 %111, 1
  store i32 %112, ptr %10, align 4, !tbaa !8
  br label %88, !llvm.loop !140

113:                                              ; preds = %88
  br label %140

114:                                              ; preds = %83
  store i32 0, ptr %10, align 4, !tbaa !8
  br label %115

115:                                              ; preds = %136, %114
  %116 = load i32, ptr %10, align 4, !tbaa !8
  %117 = load ptr, ptr %5, align 8, !tbaa !19
  %118 = getelementptr inbounds nuw %struct.Gia_Man_t_, ptr %117, i32 0, i32 109
  %119 = load i32, ptr %118, align 8, !tbaa !116
  %120 = icmp slt i32 %116, %119
  br i1 %120, label %121, label %139

121:                                              ; preds = %115
  %122 = load ptr, ptr %8, align 8, !tbaa !129
  %123 = load i32, ptr %10, align 4, !tbaa !8
  %124 = sext i32 %123 to i64
  %125 = getelementptr inbounds i64, ptr %122, i64 %124
  %126 = load i64, ptr %125, align 8, !tbaa !29
  %127 = load ptr, ptr %9, align 8, !tbaa !129
  %128 = load i32, ptr %10, align 4, !tbaa !8
  %129 = sext i32 %128 to i64
  %130 = getelementptr inbounds i64, ptr %127, i64 %129
  %131 = load i64, ptr %130, align 8, !tbaa !29
  %132 = and i64 %126, %131
  %133 = icmp ne i64 %132, 0
  br i1 %133, label %134, label %135

134:                                              ; preds = %121
  store i32 1, ptr %4, align 4
  store i32 1, ptr %11, align 4
  br label %142

135:                                              ; preds = %121
  br label %136

136:                                              ; preds = %135
  %137 = load i32, ptr %10, align 4, !tbaa !8
  %138 = add nsw i32 %137, 1
  store i32 %138, ptr %10, align 4, !tbaa !8
  br label %115, !llvm.loop !141

139:                                              ; preds = %115
  br label %140

140:                                              ; preds = %139, %113
  br label %141

141:                                              ; preds = %140, %82
  store i32 0, ptr %4, align 4
  store i32 1, ptr %11, align 4
  br label %142

142:                                              ; preds = %141, %134, %108, %76, %49
  call void @llvm.lifetime.end.p0(i64 4, ptr %10) #11
  call void @llvm.lifetime.end.p0(i64 8, ptr %9) #11
  call void @llvm.lifetime.end.p0(i64 8, ptr %8) #11
  %143 = load i32, ptr %4, align 4
  ret i32 %143
}

; Function Attrs: inlinehint nounwind uwtable
define internal i32 @Abc_Lit2Var(i32 noundef %0) #1 {
  %2 = alloca i32, align 4
  store i32 %0, ptr %2, align 4, !tbaa !8
  %3 = load i32, ptr %2, align 4, !tbaa !8
  %4 = ashr i32 %3, 1
  ret i32 %4
}

; Function Attrs: nounwind uwtable
define i32 @Gia_ManIncrSimCheckOver(ptr noundef %0, i32 noundef %1, i32 noundef %2) #0 {
  %4 = alloca ptr, align 8
  %5 = alloca i32, align 4
  %6 = alloca i32, align 4
  store ptr %0, ptr %4, align 8, !tbaa !19
  store i32 %1, ptr %5, align 4, !tbaa !8
  store i32 %2, ptr %6, align 4, !tbaa !8
  %7 = load ptr, ptr %4, align 8, !tbaa !19
  call void @Gia_ManIncrSimUpdate(ptr noundef %7)
  %8 = load ptr, ptr %4, align 8, !tbaa !19
  %9 = load i32, ptr %5, align 4, !tbaa !8
  %10 = call i32 @Abc_Lit2Var(i32 noundef %9)
  call void @Gia_ManIncrSimCone_rec(ptr noundef %8, i32 noundef %10)
  %11 = load ptr, ptr %4, align 8, !tbaa !19
  %12 = load i32, ptr %6, align 4, !tbaa !8
  %13 = call i32 @Abc_Lit2Var(i32 noundef %12)
  call void @Gia_ManIncrSimCone_rec(ptr noundef %11, i32 noundef %13)
  %14 = load ptr, ptr %4, align 8, !tbaa !19
  %15 = load i32, ptr %5, align 4, !tbaa !8
  %16 = load i32, ptr %6, align 4, !tbaa !8
  %17 = call i32 @Gia_ManBuiltInSimCheckOver(ptr noundef %14, i32 noundef %15, i32 noundef %16)
  ret i32 %17
}