; Function Attrs: nounwind uwtable
define range(i32 0, 2) i32 @Gia_ManIncrSimCheckOver(ptr noundef %0, i32 noundef %1, i32 noundef %2) local_unnamed_addr #1 {
  tail call void @Gia_ManIncrSimUpdate(ptr noundef %0)
  %4 = ashr i32 %1, 1
  tail call void @Gia_ManIncrSimCone_rec(ptr noundef %0, i32 noundef %4)
  %5 = ashr i32 %2, 1
  tail call void @Gia_ManIncrSimCone_rec(ptr noundef %0, i32 noundef %5)
  %6 = getelementptr i8, ptr %0, i64 816
  %.val43.i = load i32, ptr %6, align 8, !tbaa !114
  %7 = getelementptr i8, ptr %0, i64 832
  %.val44.i = load ptr, ptr %7, align 8, !tbaa !123
  %8 = getelementptr i8, ptr %.val44.i, i64 8
  %.val44.val.i = load ptr, ptr %8, align 8, !tbaa !119
  %9 = mul nsw i32 %.val43.i, %4
  %10 = sext i32 %9 to i64
  %11 = getelementptr inbounds i64, ptr %.val44.val.i, i64 %10
  %12 = mul nsw i32 %.val43.i, %5
  %13 = sext i32 %12 to i64
  %14 = getelementptr inbounds i64, ptr %.val44.val.i, i64 %13
  %15 = and i32 %1, 1
  %.not.i = icmp eq i32 %15, 0
  %16 = and i32 %2, 1
  %.not36.i = icmp eq i32 %16, 0
  %17 = icmp sgt i32 %.val43.i, 0
  br i1 %.not.i, label %31, label %18

18:                                               ; preds = %3
  br i1 %.not36.i, label %.preheader48.i, label %.preheader51.i

.preheader51.i:                                   ; preds = %18
  br i1 %17, label %.lr.ph.preheader.i, label %Gia_ManBuiltInSimCheckOver.exit

.lr.ph.preheader.i:                               ; preds = %.preheader51.i
  %wide.trip.count.i = zext nneg i32 %.val43.i to i64
  br label %.lr.ph.i

.preheader48.i:                                   ; preds = %18
  br i1 %17, label %.lr.ph58.preheader.i, label %Gia_ManBuiltInSimCheckOver.exit

.lr.ph58.preheader.i:                             ; preds = %.preheader48.i
  %wide.trip.count82.i = zext nneg i32 %.val43.i to i64
  br label %.lr.ph58.i

19:                                               ; preds = %.lr.ph.i
  %indvars.iv.next.i = add nuw nsw i64 %indvars.iv.i, 1
  %exitcond.not.i = icmp eq i64 %indvars.iv.next.i, %wide.trip.count.i
  br i1 %exitcond.not.i, label %Gia_ManBuiltInSimCheckOver.exit, label %.lr.ph.i, !llvm.loop !135

.lr.ph.i:                                         ; preds = %19, %.lr.ph.preheader.i
  %indvars.iv.i = phi i64 [ 0, %.lr.ph.preheader.i ], [ %indvars.iv.next.i, %19 ]
  %20 = getelementptr inbounds nuw i64, ptr %11, i64 %indvars.iv.i
  %21 = load i64, ptr %20, align 8, !tbaa !121
  %22 = getelementptr inbounds nuw i64, ptr %14, i64 %indvars.iv.i
  %23 = load i64, ptr %22, align 8, !tbaa !121
  %.demorgan.i = or i64 %23, %21
  %.not41.i = icmp eq i64 %.demorgan.i, -1
  br i1 %.not41.i, label %19, label %Gia_ManBuiltInSimCheckOver.exit

24:                                               ; preds = %.lr.ph58.i
  %indvars.iv.next80.i = add nuw nsw i64 %indvars.iv79.i, 1
  %exitcond83.not.i = icmp eq i64 %indvars.iv.next80.i, %wide.trip.count82.i
  br i1 %exitcond83.not.i, label %Gia_ManBuiltInSimCheckOver.exit, label %.lr.ph58.i, !llvm.loop !136

.lr.ph58.i:                                       ; preds = %24, %.lr.ph58.preheader.i
  %indvars.iv79.i = phi i64 [ 0, %.lr.ph58.preheader.i ], [ %indvars.iv.next80.i, %24 ]
  %25 = getelementptr inbounds nuw i64, ptr %11, i64 %indvars.iv79.i
  %26 = load i64, ptr %25, align 8, !tbaa !121
  %27 = xor i64 %26, -1
  %28 = getelementptr inbounds nuw i64, ptr %14, i64 %indvars.iv79.i
  %29 = load i64, ptr %28, align 8, !tbaa !121
  %30 = and i64 %29, %27
  %.not40.i = icmp eq i64 %30, 0
  br i1 %.not40.i, label %24, label %Gia_ManBuiltInSimCheckOver.exit

31:                                               ; preds = %3
  br i1 %.not36.i, label %.preheader.i, label %.preheader45.i

.preheader45.i:                                   ; preds = %31
  br i1 %17, label %.lr.ph63.preheader.i, label %Gia_ManBuiltInSimCheckOver.exit

.lr.ph63.preheader.i:                             ; preds = %.preheader45.i
  %wide.trip.count87.i = zext nneg i32 %.val43.i to i64
  br label %.lr.ph63.i

.preheader.i:                                     ; preds = %31
  br i1 %17, label %.lr.ph68.preheader.i, label %Gia_ManBuiltInSimCheckOver.exit

.lr.ph68.preheader.i:                             ; preds = %.preheader.i
  %wide.trip.count92.i = zext nneg i32 %.val43.i to i64
  br label %.lr.ph68.i

32:                                               ; preds = %.lr.ph63.i
  %indvars.iv.next85.i = add nuw nsw i64 %indvars.iv84.i, 1
  %exitcond88.not.i = icmp eq i64 %indvars.iv.next85.i, %wide.trip.count87.i
  br i1 %exitcond88.not.i, label %Gia_ManBuiltInSimCheckOver.exit, label %.lr.ph63.i, !llvm.loop !137

.lr.ph63.i:                                       ; preds = %32, %.lr.ph63.preheader.i
  %indvars.iv84.i = phi i64 [ 0, %.lr.ph63.preheader.i ], [ %indvars.iv.next85.i, %32 ]
  %33 = getelementptr inbounds nuw i64, ptr %11, i64 %indvars.iv84.i
  %34 = load i64, ptr %33, align 8, !tbaa !121
  %35 = getelementptr inbounds nuw i64, ptr %14, i64 %indvars.iv84.i
  %36 = load i64, ptr %35, align 8, !tbaa !121
  %37 = xor i64 %36, -1
  %38 = and i64 %34, %37
  %.not38.i = icmp eq i64 %38, 0
  br i1 %.not38.i, label %32, label %Gia_ManBuiltInSimCheckOver.exit

39:                                               ; preds = %.lr.ph68.i
  %indvars.iv.next90.i = add nuw nsw i64 %indvars.iv89.i, 1
  %exitcond93.not.i = icmp eq i64 %indvars.iv.next90.i, %wide.trip.count92.i
  br i1 %exitcond93.not.i, label %Gia_ManBuiltInSimCheckOver.exit, label %.lr.ph68.i, !llvm.loop !138

.lr.ph68.i:                                       ; preds = %39, %.lr.ph68.preheader.i
  %indvars.iv89.i = phi i64 [ 0, %.lr.ph68.preheader.i ], [ %indvars.iv.next90.i, %39 ]
  %40 = getelementptr inbounds nuw i64, ptr %11, i64 %indvars.iv89.i
  %41 = load i64, ptr %40, align 8, !tbaa !121
  %42 = getelementptr inbounds nuw i64, ptr %14, i64 %indvars.iv89.i
  %43 = load i64, ptr %42, align 8, !tbaa !121
  %44 = and i64 %43, %41
  %.not37.i = icmp eq i64 %44, 0
  br i1 %.not37.i, label %39, label %Gia_ManBuiltInSimCheckOver.exit

Gia_ManBuiltInSimCheckOver.exit:                  ; preds = %19, %.lr.ph.i, %24, %.lr.ph58.i, %32, %.lr.ph63.i, %39, %.lr.ph68.i, %.preheader51.i, %.preheader48.i, %.preheader45.i, %.preheader.i
  %.035.i = phi i32 [ 0, %.preheader.i ], [ 0, %.preheader45.i ], [ 0, %.preheader48.i ], [ 0, %.preheader51.i ], [ 0, %39 ], [ 1, %.lr.ph68.i ], [ 0, %32 ], [ 1, %.lr.ph63.i ], [ 0, %24 ], [ 1, %.lr.ph58.i ], [ 0, %19 ], [ 1, %.lr.ph.i ]
  ret i32 %.035.i
}